; Function Attrs: mustprogress uwtable
define noalias noundef nonnull ptr @ggml_backend_buffer_init(ptr noundef %0, ptr noundef readonly byval(%struct.ggml_backend_buffer_i) align 8 captures(none) %1, ptr noundef %2, i64 noundef %3) local_unnamed_addr #0 {
  %5 = tail call noalias noundef nonnull dereferenceable(104) ptr @_Znwm(i64 noundef 104) #22
  call void @llvm.memcpy.p0.p0.i64(ptr noundef nonnull align 16 dereferenceable(72) %5, ptr noundef nonnull align 8 dereferenceable(72) %1, i64 72, i1 false), !tbaa.struct !17
  %6 = getelementptr inbounds nuw i8, ptr %5, i64 72
  store ptr %0, ptr %6, align 8, !tbaa !10
  %7 = getelementptr inbounds nuw i8, ptr %5, i64 80
  store ptr %2, ptr %7, align 16, !tbaa !19
  %8 = getelementptr inbounds nuw i8, ptr %5, i64 88
  store i64 %3, ptr %8, align 8, !tbaa !20
  %9 = getelementptr inbounds nuw i8, ptr %5, i64 96
  store i32 0, ptr %9, align 16, !tbaa !21
  ret ptr %5
}